; ModuleID = '5/846.c'
source_filename = "5/846.c"
target datalayout = "e-m:e-p270:32:32-p271:32:32-p272:64:64-i64:64-f80:128-n8:16:32:64-S128"
target triple = "x86_64-pc-linux-gnu"

@.str = private unnamed_addr constant [6 x i8] c"error\00", align 1
@.str.1 = private unnamed_addr constant [4 x i8] c"yes\00", align 1
@.str.2 = private unnamed_addr constant [3 x i8] c"no\00", align 1

; Function Attrs: noinline nounwind uwtable
define dso_local i32 @main() #0 {
  %1 = alloca i32, align 4
  %2 = alloca [501 x i8], align 16
  %3 = alloca [501 x i8], align 16
  %4 = alloca [20 x i8], align 16
  %5 = alloca double, align 8
  %6 = alloca double, align 8
  %7 = alloca i32, align 4
  %8 = alloca i32, align 4
  store i32 0, i32* %1, align 4
  %9 = getelementptr inbounds [20 x i8], [20 x i8]* %4, i64 0, i64 0
  %10 = call i32 (i8*, ...) bitcast (i32 (...)* @gets to i32 (i8*, ...)*)(i8* %9)
  %11 = getelementptr inbounds [20 x i8], [20 x i8]* %4, i64 0, i64 0
  %12 = call double @atof(i8* %11) #3
  store double %12, double* %5, align 8
  %13 = getelementptr inbounds [501 x i8], [501 x i8]* %2, i64 0, i64 0
  %14 = call i32 (i8*, ...) bitcast (i32 (...)* @gets to i32 (i8*, ...)*)(i8* %13)
  %15 = getelementptr inbounds [501 x i8], [501 x i8]* %3, i64 0, i64 0
  %16 = call i32 (i8*, ...) bitcast (i32 (...)* @gets to i32 (i8*, ...)*)(i8* %15)
  %17 = getelementptr inbounds [501 x i8], [501 x i8]* %2, i64 0, i64 0
  %18 = call i64 @strlen(i8* %17) #3
  %19 = getelementptr inbounds [501 x i8], [501 x i8]* %3, i64 0, i64 0
  %20 = call i64 @strlen(i8* %19) #3
  %21 = icmp ne i64 %18, %20
  br i1 %21, label %22, label %24

22:                                               ; preds = %0
  %23 = call i32 (i8*, ...) @printf(i8* getelementptr inbounds ([6 x i8], [6 x i8]* @.str, i64 0, i64 0))
  store i32 0, i32* %1, align 4
  br label %137

24:                                               ; preds = %0
  store i32 0, i32* %7, align 4
  br label %25

25:                                               ; preds = %91, %24
  %26 = load i32, i32* %7, align 4
  %27 = sext i32 %26 to i64
  %28 = getelementptr inbounds [501 x i8], [501 x i8]* %2, i64 0, i64 %27
  %29 = load i8, i8* %28, align 1
  %30 = sext i8 %29 to i32
  %31 = icmp ne i32 %30, 0
  br i1 %31, label %32, label %94

32:                                               ; preds = %25
  %33 = load i32, i32* %7, align 4
  %34 = sext i32 %33 to i64
  %35 = getelementptr inbounds [501 x i8], [501 x i8]* %2, i64 0, i64 %34
  %36 = load i8, i8* %35, align 1
  %37 = sext i8 %36 to i32
  %38 = icmp ne i32 %37, 65
  br i1 %38, label %39, label %60

39:                                               ; preds = %32
  %40 = load i32, i32* %7, align 4
  %41 = sext i32 %40 to i64
  %42 = getelementptr inbounds [501 x i8], [501 x i8]* %2, i64 0, i64 %41
  %43 = load i8, i8* %42, align 1
  %44 = sext i8 %43 to i32
  %45 = icmp ne i32 %44, 71
  br i1 %45, label %46, label %60

46:                                               ; preds = %39
  %47 = load i32, i32* %7, align 4
  %48 = sext i32 %47 to i64
  %49 = getelementptr inbounds [501 x i8], [501 x i8]* %2, i64 0, i64 %48
  %50 = load i8, i8* %49, align 1
  %51 = sext i8 %50 to i32
  %52 = icmp ne i32 %51, 67
  br i1 %52, label %53, label %60

53:                                               ; preds = %46
  %54 = load i32, i32* %7, align 4
  %55 = sext i32 %54 to i64
  %56 = getelementptr inbounds [501 x i8], [501 x i8]* %2, i64 0, i64 %55
  %57 = load i8, i8* %56, align 1
  %58 = sext i8 %57 to i32
  %59 = icmp ne i32 %58, 84
  br i1 %59, label %88, label %60

60:                                               ; preds = %53, %46, %39, %32
  %61 = load i32, i32* %7, align 4
  %62 = sext i32 %61 to i64
  %63 = getelementptr inbounds [501 x i8], [501 x i8]* %3, i64 0, i64 %62
  %64 = load i8, i8* %63, align 1
  %65 = sext i8 %64 to i32
  %66 = icmp ne i32 %65, 65
  br i1 %66, label %67, label %90

67:                                               ; preds = %60
  %68 = load i32, i32* %7, align 4
  %69 = sext i32 %68 to i64
  %70 = getelementptr inbounds [501 x i8], [501 x i8]* %3, i64 0, i64 %69
  %71 = load i8, i8* %70, align 1
  %72 = sext i8 %71 to i32
  %73 = icmp ne i32 %72, 71
  br i1 %73, label %74, label %90

74:                                               ; preds = %67
  %75 = load i32, i32* %7, align 4
  %76 = sext i32 %75 to i64
  %77 = getelementptr inbounds [501 x i8], [501 x i8]* %3, i64 0, i64 %76
  %78 = load i8, i8* %77, align 1
  %79 = sext i8 %78 to i32
  %80 = icmp ne i32 %79, 67
  br i1 %80, label %81, label %90

81:                                               ; preds = %74
  %82 = load i32, i32* %7, align 4
  %83 = sext i32 %82 to i64
  %84 = getelementptr inbounds [501 x i8], [501 x i8]* %3, i64 0, i64 %83
  %85 = load i8, i8* %84, align 1
  %86 = sext i8 %85 to i32
  %87 = icmp ne i32 %86, 84
  br i1 %87, label %88, label %90

88:                                               ; preds = %81, %53
  %89 = call i32 (i8*, ...) @printf(i8* getelementptr inbounds ([6 x i8], [6 x i8]* @.str, i64 0, i64 0))
  store i32 0, i32* %1, align 4
  br label %137

90:                                               ; preds = %81, %74, %67, %60
  br label %91

91:                                               ; preds = %90
  %92 = load i32, i32* %7, align 4
  %93 = add nsw i32 %92, 1
  store i32 %93, i32* %7, align 4
  br label %25

94:                                               ; preds = %25
  store i32 0, i32* %8, align 4
  store i32 0, i32* %7, align 4
  br label %95

95:                                               ; preds = %118, %94
  %96 = load i32, i32* %7, align 4
  %97 = sext i32 %96 to i64
  %98 = getelementptr inbounds [501 x i8], [501 x i8]* %2, i64 0, i64 %97
  %99 = load i8, i8* %98, align 1
  %100 = sext i8 %99 to i32
  %101 = icmp ne i32 %100, 0
  br i1 %101, label %102, label %121

102:                                              ; preds = %95
  %103 = load i32, i32* %7, align 4
  %104 = sext i32 %103 to i64
  %105 = getelementptr inbounds [501 x i8], [501 x i8]* %2, i64 0, i64 %104
  %106 = load i8, i8* %105, align 1
  %107 = sext i8 %106 to i32
  %108 = load i32, i32* %7, align 4
  %109 = sext i32 %108 to i64
  %110 = getelementptr inbounds [501 x i8], [501 x i8]* %3, i64 0, i64 %109
  %111 = load i8, i8* %110, align 1
  %112 = sext i8 %111 to i32
  %113 = icmp eq i32 %107, %112
  br i1 %113, label %114, label %117

114:                                              ; preds = %102
  %115 = load i32, i32* %8, align 4
  %116 = add nsw i32 %115, 1
  store i32 %116, i32* %8, align 4
  br label %117

117:                                              ; preds = %114, %102
  br label %118

118:                                              ; preds = %117
  %119 = load i32, i32* %7, align 4
  %120 = add nsw i32 %119, 1
  store i32 %120, i32* %7, align 4
  br label %95

121:                                              ; preds = %95
  %122 = load i32, i32* %8, align 4
  %123 = sitofp i32 %122 to double
  %124 = fmul double 1.000000e+00, %123
  %125 = getelementptr inbounds [501 x i8], [501 x i8]* %2, i64 0, i64 0
  %126 = call i64 @strlen(i8* %125) #3
  %127 = uitofp i64 %126 to double
  %128 = fdiv double %124, %127
  store double %128, double* %6, align 8
  %129 = load double, double* %6, align 8
  %130 = load double, double* %5, align 8
  %131 = fcmp oge double %129, %130
  br i1 %131, label %132, label %134

132:                                              ; preds = %121
  %133 = call i32 (i8*, ...) @printf(i8* getelementptr inbounds ([4 x i8], [4 x i8]* @.str.1, i64 0, i64 0))
  br label %136

134:                                              ; preds = %121
  %135 = call i32 (i8*, ...) @printf(i8* getelementptr inbounds ([3 x i8], [3 x i8]* @.str.2, i64 0, i64 0))
  br label %136

136:                                              ; preds = %134, %132
  store i32 0, i32* %1, align 4
  br label %137

137:                                              ; preds = %136, %88, %22
  %138 = load i32, i32* %1, align 4
  ret i32 %138
}

declare dso_local i32 @gets(...) #1

; Function Attrs: nounwind readonly
declare dso_local double @atof(i8*) #2

; Function Attrs: nounwind readonly
declare dso_local i64 @strlen(i8*) #2

declare dso_local i32 @printf(i8*, ...) #1


!llvm.module.flags = !{!0}
!llvm.ident = !{!1}

!0 = !{i32 1, !"wchar_size", i32 4}
!1 = !{!"clang version 10.0.0-4ubuntu1 "}
